target datalayout = "e-m:e-p270:32:32-p271:32:32-p272:64:64-i64:64-i128:128-f80:128-n8:16:32:64-S128"
target triple = "x86_64-pc-linux-gnu"

%struct.bn_mont_ctx_st = type { %struct.bignum_st, %struct.bignum_st, [2 x i64] }
%struct.bignum_st = type { ptr, i32, i32, i32, i32 }

; Function Attrs: nounwind uwtable
define internal i32 @BN_from_montgomery_word(ptr noundef %0, ptr noundef %1, ptr noundef %2) #0 {
  %4 = alloca i32, align 4
  %5 = alloca ptr, align 8
  %6 = alloca ptr, align 8
  %7 = alloca ptr, align 8
  %8 = alloca ptr, align 8
  %9 = alloca ptr, align 8
  %10 = alloca ptr, align 8
  %11 = alloca i64, align 8
  %12 = alloca i64, align 8
  %13 = alloca i64, align 8
  %14 = alloca i32, align 4
  %15 = alloca i32, align 4
  %16 = alloca i32, align 4
  %17 = alloca ptr, align 8
  %18 = alloca i32, align 4
  %19 = alloca ptr, align 8
  %20 = alloca i64, align 8
  %21 = alloca i64, align 8
  %22 = alloca i64, align 8
  %23 = alloca i64, align 8
  %24 = alloca i64, align 8
  store ptr %0, ptr %5, align 8, !tbaa !13
  store ptr %1, ptr %6, align 8, !tbaa !13
  store ptr %2, ptr %7, align 8, !tbaa !6
  call void @llvm.lifetime.start.p0(i64 8, ptr %8) #6
  call void @llvm.lifetime.start.p0(i64 8, ptr %9) #6
  call void @llvm.lifetime.start.p0(i64 8, ptr %10) #6
  call void @llvm.lifetime.start.p0(i64 8, ptr %11) #6
  call void @llvm.lifetime.start.p0(i64 8, ptr %12) #6
  call void @llvm.lifetime.start.p0(i64 8, ptr %13) #6
  call void @llvm.lifetime.start.p0(i64 4, ptr %14) #6
  call void @llvm.lifetime.start.p0(i64 4, ptr %15) #6
  call void @llvm.lifetime.start.p0(i64 4, ptr %16) #6
  call void @llvm.lifetime.start.p0(i64 8, ptr %17) #6
  %25 = load ptr, ptr %7, align 8, !tbaa !6
  %26 = getelementptr inbounds nuw %struct.bn_mont_ctx_st, ptr %25, i32 0, i32 1
  store ptr %26, ptr %17, align 8, !tbaa !13
  %27 = load ptr, ptr %17, align 8, !tbaa !13
  %28 = getelementptr inbounds nuw %struct.bignum_st, ptr %27, i32 0, i32 1
  %29 = load i32, ptr %28, align 8, !tbaa !26
  store i32 %29, ptr %14, align 4, !tbaa !17
  %30 = load i32, ptr %14, align 4, !tbaa !17
  %31 = icmp eq i32 %30, 0
  br i1 %31, label %32, label %35

32:                                               ; preds = %3
  %33 = load ptr, ptr %5, align 8, !tbaa !13
  %34 = getelementptr inbounds nuw %struct.bignum_st, ptr %33, i32 0, i32 1
  store i32 0, ptr %34, align 8, !tbaa !26
  store i32 1, ptr %4, align 4
  store i32 1, ptr %18, align 4
  br label %292

35:                                               ; preds = %3
  %36 = load i32, ptr %14, align 4, !tbaa !17
  %37 = mul nsw i32 2, %36
  store i32 %37, ptr %15, align 4, !tbaa !17
  %38 = load ptr, ptr %6, align 8, !tbaa !13
  %39 = load i32, ptr %15, align 4, !tbaa !17
  %40 = sext i32 %39 to i64
  %41 = call ptr @bn_wexpand(ptr noundef %38, i64 noundef %40)
  %42 = icmp eq ptr %41, null
  br i1 %42, label %43, label %44

43:                                               ; preds = %35
  store i32 0, ptr %4, align 4
  store i32 1, ptr %18, align 4
  br label %292

44:                                               ; preds = %35
  %45 = load ptr, ptr %17, align 8, !tbaa !13
  %46 = getelementptr inbounds nuw %struct.bignum_st, ptr %45, i32 0, i32 3
  %47 = load i32, ptr %46, align 8, !tbaa !25
  %48 = load ptr, ptr %6, align 8, !tbaa !13
  %49 = getelementptr inbounds nuw %struct.bignum_st, ptr %48, i32 0, i32 3
  %50 = load i32, ptr %49, align 8, !tbaa !25
  %51 = xor i32 %50, %47
  store i32 %51, ptr %49, align 8, !tbaa !25
  %52 = load ptr, ptr %17, align 8, !tbaa !13
  %53 = getelementptr inbounds nuw %struct.bignum_st, ptr %52, i32 0, i32 0
  %54 = load ptr, ptr %53, align 8, !tbaa !23
  store ptr %54, ptr %9, align 8, !tbaa !33
  %55 = load ptr, ptr %6, align 8, !tbaa !13
  %56 = getelementptr inbounds nuw %struct.bignum_st, ptr %55, i32 0, i32 0
  %57 = load ptr, ptr %56, align 8, !tbaa !23
  store ptr %57, ptr %10, align 8, !tbaa !33
  %58 = load i32, ptr %15, align 4, !tbaa !17
  %59 = load ptr, ptr %6, align 8, !tbaa !13
  %60 = getelementptr inbounds nuw %struct.bignum_st, ptr %59, i32 0, i32 1
  %61 = load i32, ptr %60, align 8, !tbaa !26
  %62 = icmp sgt i32 %58, %61
  br i1 %62, label %63, label %77

63:                                               ; preds = %44
  %64 = load ptr, ptr %10, align 8, !tbaa !33
  %65 = load ptr, ptr %6, align 8, !tbaa !13
  %66 = getelementptr inbounds nuw %struct.bignum_st, ptr %65, i32 0, i32 1
  %67 = load i32, ptr %66, align 8, !tbaa !26
  %68 = sext i32 %67 to i64
  %69 = getelementptr inbounds i64, ptr %64, i64 %68
  %70 = load i32, ptr %15, align 4, !tbaa !17
  %71 = load ptr, ptr %6, align 8, !tbaa !13
  %72 = getelementptr inbounds nuw %struct.bignum_st, ptr %71, i32 0, i32 1
  %73 = load i32, ptr %72, align 8, !tbaa !26
  %74 = sub nsw i32 %70, %73
  %75 = sext i32 %74 to i64
  %76 = mul i64 %75, 8
  call void @llvm.memset.p0.i64(ptr align 8 %69, i8 0, i64 %76, i1 false)
  br label %77

77:                                               ; preds = %63, %44
  %78 = load i32, ptr %15, align 4, !tbaa !17
  %79 = load ptr, ptr %6, align 8, !tbaa !13
  %80 = getelementptr inbounds nuw %struct.bignum_st, ptr %79, i32 0, i32 1
  store i32 %78, ptr %80, align 8, !tbaa !26
  %81 = load ptr, ptr %7, align 8, !tbaa !6
  %82 = getelementptr inbounds nuw %struct.bn_mont_ctx_st, ptr %81, i32 0, i32 2
  %83 = getelementptr inbounds [2 x i64], ptr %82, i64 0, i64 0
  %84 = load i64, ptr %83, align 8, !tbaa !11
  store i64 %84, ptr %11, align 8, !tbaa !11
  store i64 0, ptr %13, align 8, !tbaa !11
  store i32 0, ptr %16, align 4, !tbaa !17
  br label %85

85:                                               ; preds = %137, %77
  %86 = load i32, ptr %16, align 4, !tbaa !17
  %87 = load i32, ptr %14, align 4, !tbaa !17
  %88 = icmp slt i32 %86, %87
  br i1 %88, label %89, label %142

89:                                               ; preds = %85
  %90 = load ptr, ptr %10, align 8, !tbaa !33
  %91 = load ptr, ptr %9, align 8, !tbaa !33
  %92 = load i32, ptr %14, align 4, !tbaa !17
  %93 = load ptr, ptr %10, align 8, !tbaa !33
  %94 = getelementptr inbounds i64, ptr %93, i64 0
  %95 = load i64, ptr %94, align 8, !tbaa !11
  %96 = load i64, ptr %11, align 8, !tbaa !11
  %97 = mul i64 %95, %96
  %98 = and i64 %97, -1
  %99 = call i64 @bn_mul_add_words(ptr noundef %90, ptr noundef %91, i32 noundef %92, i64 noundef %98)
  store i64 %99, ptr %12, align 8, !tbaa !11
  %100 = load i64, ptr %12, align 8, !tbaa !11
  %101 = load i64, ptr %13, align 8, !tbaa !11
  %102 = add i64 %100, %101
  %103 = load ptr, ptr %10, align 8, !tbaa !33
  %104 = load i32, ptr %14, align 4, !tbaa !17
  %105 = sext i32 %104 to i64
  %106 = getelementptr inbounds i64, ptr %103, i64 %105
  %107 = load i64, ptr %106, align 8, !tbaa !11
  %108 = add i64 %102, %107
  %109 = and i64 %108, -1
  store i64 %109, ptr %12, align 8, !tbaa !11
  %110 = load i64, ptr %12, align 8, !tbaa !11
  %111 = load ptr, ptr %10, align 8, !tbaa !33
  %112 = load i32, ptr %14, align 4, !tbaa !17
  %113 = sext i32 %112 to i64
  %114 = getelementptr inbounds i64, ptr %111, i64 %113
  %115 = load i64, ptr %114, align 8, !tbaa !11
  %116 = icmp ne i64 %110, %115
  %117 = zext i1 %116 to i32
  %118 = sext i32 %117 to i64
  %119 = load i64, ptr %13, align 8, !tbaa !11
  %120 = or i64 %119, %118
  store i64 %120, ptr %13, align 8, !tbaa !11
  %121 = load i64, ptr %12, align 8, !tbaa !11
  %122 = load ptr, ptr %10, align 8, !tbaa !33
  %123 = load i32, ptr %14, align 4, !tbaa !17
  %124 = sext i32 %123 to i64
  %125 = getelementptr inbounds i64, ptr %122, i64 %124
  %126 = load i64, ptr %125, align 8, !tbaa !11
  %127 = icmp ule i64 %121, %126
  %128 = zext i1 %127 to i32
  %129 = sext i32 %128 to i64
  %130 = load i64, ptr %13, align 8, !tbaa !11
  %131 = and i64 %130, %129
  store i64 %131, ptr %13, align 8, !tbaa !11
  %132 = load i64, ptr %12, align 8, !tbaa !11
  %133 = load ptr, ptr %10, align 8, !tbaa !33
  %134 = load i32, ptr %14, align 4, !tbaa !17
  %135 = sext i32 %134 to i64
  %136 = getelementptr inbounds i64, ptr %133, i64 %135
  store i64 %132, ptr %136, align 8, !tbaa !11
  br label %137

137:                                              ; preds = %89
  %138 = load i32, ptr %16, align 4, !tbaa !17
  %139 = add nsw i32 %138, 1
  store i32 %139, ptr %16, align 4, !tbaa !17
  %140 = load ptr, ptr %10, align 8, !tbaa !33
  %141 = getelementptr inbounds nuw i64, ptr %140, i32 1
  store ptr %141, ptr %10, align 8, !tbaa !33
  br label %85, !llvm.loop !34

142:                                              ; preds = %85
  %143 = load ptr, ptr %5, align 8, !tbaa !13
  %144 = load i32, ptr %14, align 4, !tbaa !17
  %145 = sext i32 %144 to i64
  %146 = call ptr @bn_wexpand(ptr noundef %143, i64 noundef %145)
  %147 = icmp eq ptr %146, null
  br i1 %147, label %148, label %149

148:                                              ; preds = %142
  store i32 0, ptr %4, align 4
  store i32 1, ptr %18, align 4
  br label %292

149:                                              ; preds = %142
  %150 = load i32, ptr %14, align 4, !tbaa !17
  %151 = load ptr, ptr %5, align 8, !tbaa !13
  %152 = getelementptr inbounds nuw %struct.bignum_st, ptr %151, i32 0, i32 1
  store i32 %150, ptr %152, align 8, !tbaa !26
  %153 = load ptr, ptr %6, align 8, !tbaa !13
  %154 = getelementptr inbounds nuw %struct.bignum_st, ptr %153, i32 0, i32 3
  %155 = load i32, ptr %154, align 8, !tbaa !25
  %156 = load ptr, ptr %5, align 8, !tbaa !13
  %157 = getelementptr inbounds nuw %struct.bignum_st, ptr %156, i32 0, i32 3
  store i32 %155, ptr %157, align 8, !tbaa !25
  %158 = load ptr, ptr %5, align 8, !tbaa !13
  %159 = getelementptr inbounds nuw %struct.bignum_st, ptr %158, i32 0, i32 0
  %160 = load ptr, ptr %159, align 8, !tbaa !23
  store ptr %160, ptr %10, align 8, !tbaa !33
  %161 = load ptr, ptr %6, align 8, !tbaa !13
  %162 = getelementptr inbounds nuw %struct.bignum_st, ptr %161, i32 0, i32 0
  %163 = load ptr, ptr %162, align 8, !tbaa !23
  %164 = load i32, ptr %14, align 4, !tbaa !17
  %165 = sext i32 %164 to i64
  %166 = getelementptr inbounds i64, ptr %163, i64 %165
  store ptr %166, ptr %8, align 8, !tbaa !33
  call void @llvm.lifetime.start.p0(i64 8, ptr %19) #6
  call void @llvm.lifetime.start.p0(i64 8, ptr %20) #6
  %167 = load ptr, ptr %10, align 8, !tbaa !33
  %168 = load ptr, ptr %8, align 8, !tbaa !33
  %169 = load ptr, ptr %9, align 8, !tbaa !33
  %170 = load i32, ptr %14, align 4, !tbaa !17
  %171 = call i64 @bn_sub_words(ptr noundef %167, ptr noundef %168, ptr noundef %169, i32 noundef %170)
  %172 = load i64, ptr %13, align 8, !tbaa !11
  %173 = sub i64 %171, %172
  store i64 %173, ptr %12, align 8, !tbaa !11
  %174 = load i64, ptr %12, align 8, !tbaa !11
  %175 = sub i64 0, %174
  store i64 %175, ptr %20, align 8, !tbaa !11
  %176 = load ptr, ptr %10, align 8, !tbaa !33
  %177 = ptrtoint ptr %176 to i64
  %178 = load i64, ptr %20, align 8, !tbaa !11
  %179 = xor i64 %178, -1
  %180 = and i64 %177, %179
  %181 = load ptr, ptr %8, align 8, !tbaa !33
  %182 = ptrtoint ptr %181 to i64
  %183 = load i64, ptr %20, align 8, !tbaa !11
  %184 = and i64 %182, %183
  %185 = or i64 %180, %184
  %186 = inttoptr i64 %185 to ptr
  store ptr %186, ptr %19, align 8, !tbaa !33
  store i32 0, ptr %16, align 4, !tbaa !17
  %187 = load i32, ptr %14, align 4, !tbaa !17
  %188 = sub nsw i32 %187, 4
  store i32 %188, ptr %14, align 4, !tbaa !17
  br label %189

189:                                              ; preds = %262, %149
  %190 = load i32, ptr %16, align 4, !tbaa !17
  %191 = load i32, ptr %14, align 4, !tbaa !17
  %192 = icmp slt i32 %190, %191
  br i1 %192, label %193, label %265

193:                                              ; preds = %189
  call void @llvm.lifetime.start.p0(i64 8, ptr %21) #6
  call void @llvm.lifetime.start.p0(i64 8, ptr %22) #6
  call void @llvm.lifetime.start.p0(i64 8, ptr %23) #6
  call void @llvm.lifetime.start.p0(i64 8, ptr %24) #6
  %194 = load ptr, ptr %19, align 8, !tbaa !33
  %195 = load i32, ptr %16, align 4, !tbaa !17
  %196 = add nsw i32 %195, 0
  %197 = sext i32 %196 to i64
  %198 = getelementptr inbounds i64, ptr %194, i64 %197
  %199 = load i64, ptr %198, align 8, !tbaa !11
  store i64 %199, ptr %21, align 8, !tbaa !11
  %200 = load ptr, ptr %19, align 8, !tbaa !33
  %201 = load i32, ptr %16, align 4, !tbaa !17
  %202 = add nsw i32 %201, 1
  %203 = sext i32 %202 to i64
  %204 = getelementptr inbounds i64, ptr %200, i64 %203
  %205 = load i64, ptr %204, align 8, !tbaa !11
  store i64 %205, ptr %22, align 8, !tbaa !11
  %206 = load ptr, ptr %19, align 8, !tbaa !33
  %207 = load i32, ptr %16, align 4, !tbaa !17
  %208 = add nsw i32 %207, 2
  %209 = sext i32 %208 to i64
  %210 = getelementptr inbounds i64, ptr %206, i64 %209
  %211 = load i64, ptr %210, align 8, !tbaa !11
  store i64 %211, ptr %23, align 8, !tbaa !11
  %212 = load ptr, ptr %8, align 8, !tbaa !33
  %213 = load i32, ptr %16, align 4, !tbaa !17
  %214 = add nsw i32 %213, 0
  %215 = sext i32 %214 to i64
  %216 = getelementptr inbounds i64, ptr %212, i64 %215
  store i64 0, ptr %216, align 8, !tbaa !11
  %217 = load ptr, ptr %19, align 8, !tbaa !33
  %218 = load i32, ptr %16, align 4, !tbaa !17
  %219 = add nsw i32 %218, 3
  %220 = sext i32 %219 to i64
  %221 = getelementptr inbounds i64, ptr %217, i64 %220
  %222 = load i64, ptr %221, align 8, !tbaa !11
  store i64 %222, ptr %24, align 8, !tbaa !11
  %223 = load ptr, ptr %8, align 8, !tbaa !33
  %224 = load i32, ptr %16, align 4, !tbaa !17
  %225 = add nsw i32 %224, 1
  %226 = sext i32 %225 to i64
  %227 = getelementptr inbounds i64, ptr %223, i64 %226
  store i64 0, ptr %227, align 8, !tbaa !11
  %228 = load i64, ptr %21, align 8, !tbaa !11
  %229 = load ptr, ptr %10, align 8, !tbaa !33
  %230 = load i32, ptr %16, align 4, !tbaa !17
  %231 = add nsw i32 %230, 0
  %232 = sext i32 %231 to i64
  %233 = getelementptr inbounds i64, ptr %229, i64 %232
  store i64 %228, ptr %233, align 8, !tbaa !11
  %234 = load ptr, ptr %8, align 8, !tbaa !33
  %235 = load i32, ptr %16, align 4, !tbaa !17
  %236 = add nsw i32 %235, 2
  %237 = sext i32 %236 to i64
  %238 = getelementptr inbounds i64, ptr %234, i64 %237
  store i64 0, ptr %238, align 8, !tbaa !11
  %239 = load i64, ptr %22, align 8, !tbaa !11
  %240 = load ptr, ptr %10, align 8, !tbaa !33
  %241 = load i32, ptr %16, align 4, !tbaa !17
  %242 = add nsw i32 %241, 1
  %243 = sext i32 %242 to i64
  %244 = getelementptr inbounds i64, ptr %240, i64 %243
  store i64 %239, ptr %244, align 8, !tbaa !11
  %245 = load ptr, ptr %8, align 8, !tbaa !33
  %246 = load i32, ptr %16, align 4, !tbaa !17
  %247 = add nsw i32 %246, 3
  %248 = sext i32 %247 to i64
  %249 = getelementptr inbounds i64, ptr %245, i64 %248
  store i64 0, ptr %249, align 8, !tbaa !11
  %250 = load i64, ptr %23, align 8, !tbaa !11
  %251 = load ptr, ptr %10, align 8, !tbaa !33
  %252 = load i32, ptr %16, align 4, !tbaa !17
  %253 = add nsw i32 %252, 2
  %254 = sext i32 %253 to i64
  %255 = getelementptr inbounds i64, ptr %251, i64 %254
  store i64 %250, ptr %255, align 8, !tbaa !11
  %256 = load i64, ptr %24, align 8, !tbaa !11
  %257 = load ptr, ptr %10, align 8, !tbaa !33
  %258 = load i32, ptr %16, align 4, !tbaa !17
  %259 = add nsw i32 %258, 3
  %260 = sext i32 %259 to i64
  %261 = getelementptr inbounds i64, ptr %257, i64 %260
  store i64 %256, ptr %261, align 8, !tbaa !11
  call void @llvm.lifetime.end.p0(i64 8, ptr %24) #6
  call void @llvm.lifetime.end.p0(i64 8, ptr %23) #6
  call void @llvm.lifetime.end.p0(i64 8, ptr %22) #6
  call void @llvm.lifetime.end.p0(i64 8, ptr %21) #6
  br label %262

262:                                              ; preds = %193
  %263 = load i32, ptr %16, align 4, !tbaa !17
  %264 = add nsw i32 %263, 4
  store i32 %264, ptr %16, align 4, !tbaa !17
  br label %189, !llvm.loop !36

265:                                              ; preds = %189
  %266 = load i32, ptr %14, align 4, !tbaa !17
  %267 = add nsw i32 %266, 4
  store i32 %267, ptr %14, align 4, !tbaa !17
  br label %268

268:                                              ; preds = %286, %265
  %269 = load i32, ptr %16, align 4, !tbaa !17
  %270 = load i32, ptr %14, align 4, !tbaa !17
  %271 = icmp slt i32 %269, %270
  br i1 %271, label %272, label %289

272:                                              ; preds = %268
  %273 = load ptr, ptr %19, align 8, !tbaa !33
  %274 = load i32, ptr %16, align 4, !tbaa !17
  %275 = sext i32 %274 to i64
  %276 = getelementptr inbounds i64, ptr %273, i64 %275
  %277 = load i64, ptr %276, align 8, !tbaa !11
  %278 = load ptr, ptr %10, align 8, !tbaa !33
  %279 = load i32, ptr %16, align 4, !tbaa !17
  %280 = sext i32 %279 to i64
  %281 = getelementptr inbounds i64, ptr %278, i64 %280
  store i64 %277, ptr %281, align 8, !tbaa !11
  %282 = load ptr, ptr %8, align 8, !tbaa !33
  %283 = load i32, ptr %16, align 4, !tbaa !17
  %284 = sext i32 %283 to i64
  %285 = getelementptr inbounds i64, ptr %282, i64 %284
  store i64 0, ptr %285, align 8, !tbaa !11
  br label %286

286:                                              ; preds = %272
  %287 = load i32, ptr %16, align 4, !tbaa !17
  %288 = add nsw i32 %287, 1
  store i32 %288, ptr %16, align 4, !tbaa !17
  br label %268, !llvm.loop !37

289:                                              ; preds = %268
  call void @llvm.lifetime.end.p0(i64 8, ptr %20) #6
  call void @llvm.lifetime.end.p0(i64 8, ptr %19) #6
  %290 = load ptr, ptr %6, align 8, !tbaa !13
  call void @bn_correct_top(ptr noundef %290)
  %291 = load ptr, ptr %5, align 8, !tbaa !13
  call void @bn_correct_top(ptr noundef %291)
  store i32 1, ptr %4, align 4
  store i32 1, ptr %18, align 4
  br label %292

292:                                              ; preds = %289, %148, %43, %32
  call void @llvm.lifetime.end.p0(i64 8, ptr %17) #6
  call void @llvm.lifetime.end.p0(i64 4, ptr %16) #6
  call void @llvm.lifetime.end.p0(i64 4, ptr %15) #6
  call void @llvm.lifetime.end.p0(i64 4, ptr %14) #6
  call void @llvm.lifetime.end.p0(i64 8, ptr %13) #6
  call void @llvm.lifetime.end.p0(i64 8, ptr %12) #6
  call void @llvm.lifetime.end.p0(i64 8, ptr %11) #6
  call void @llvm.lifetime.end.p0(i64 8, ptr %10) #6
  call void @llvm.lifetime.end.p0(i64 8, ptr %9) #6
  call void @llvm.lifetime.end.p0(i64 8, ptr %8) #6
  %293 = load i32, ptr %4, align 4
  ret i32 %293
}