; Function Attrs: nounwind uwtable
define internal fastcc range(i32 0, 2) i32 @BN_from_montgomery_word(ptr noundef %0, ptr noundef nonnull %1, ptr noundef readonly captures(none) %2) unnamed_addr #0 {
  %4 = getelementptr inbounds nuw i8, ptr %2, i64 24
  %5 = getelementptr inbounds nuw i8, ptr %2, i64 32
  %6 = load i32, ptr %5, align 8, !tbaa !19
  %7 = icmp eq i32 %6, 0
  br i1 %7, label %8, label %10

8:                                                ; preds = %3
  %9 = getelementptr inbounds nuw i8, ptr %0, i64 8
  store i32 0, ptr %9, align 8, !tbaa !19
  br label %97

10:                                               ; preds = %3
  %11 = shl nsw i32 %6, 1
  %12 = sext i32 %11 to i64
  %13 = tail call ptr @bn_wexpand(ptr noundef nonnull %1, i64 noundef %12) #6
  %14 = icmp eq ptr %13, null
  br i1 %14, label %97, label %15

15:                                               ; preds = %10
  %16 = getelementptr inbounds nuw i8, ptr %2, i64 40
  %17 = load i32, ptr %16, align 8, !tbaa !18
  %18 = getelementptr inbounds nuw i8, ptr %1, i64 16
  %19 = load i32, ptr %18, align 8, !tbaa !18
  %20 = xor i32 %19, %17
  store i32 %20, ptr %18, align 8, !tbaa !18
  %21 = load ptr, ptr %4, align 8, !tbaa !16
  %22 = load ptr, ptr %1, align 8, !tbaa !16
  %23 = getelementptr inbounds nuw i8, ptr %1, i64 8
  %24 = load i32, ptr %23, align 8, !tbaa !19
  %25 = icmp sgt i32 %11, %24
  br i1 %25, label %26, label %32

26:                                               ; preds = %15
  %27 = sext i32 %24 to i64
  %28 = getelementptr inbounds i64, ptr %22, i64 %27
  %29 = sub nsw i32 %11, %24
  %30 = sext i32 %29 to i64
  %31 = shl nsw i64 %30, 3
  tail call void @llvm.memset.p0.i64(ptr align 8 %28, i8 0, i64 %31, i1 false)
  br label %32

32:                                               ; preds = %26, %15
  store i32 %11, ptr %23, align 8, !tbaa !19
  %33 = getelementptr inbounds nuw i8, ptr %2, i64 48
  %34 = load i64, ptr %33, align 8, !tbaa !6
  %35 = icmp sgt i32 %6, 0
  br i1 %35, label %.lr.ph, label %._crit_edge

.lr.ph:                                           ; preds = %32
  %36 = zext nneg i32 %6 to i64
  br label %37

37:                                               ; preds = %.lr.ph, %37
  %.0107115 = phi ptr [ %22, %.lr.ph ], [ %48, %37 ]
  %.0108114 = phi i64 [ 0, %.lr.ph ], [ %46, %37 ]
  %.0109113 = phi i32 [ 0, %.lr.ph ], [ %47, %37 ]
  %38 = load i64, ptr %.0107115, align 8, !tbaa !6
  %39 = mul i64 %38, %34
  %40 = tail call i64 @bn_mul_add_words(ptr noundef nonnull %.0107115, ptr noundef %21, i32 noundef %6, i64 noundef %39) #6
  %41 = add i64 %40, %.0108114
  %42 = getelementptr inbounds nuw i64, ptr %.0107115, i64 %36
  %43 = load i64, ptr %42, align 8, !tbaa !6
  %44 = add i64 %41, %43
  %45 = icmp ne i64 %41, 0
  %.not = icmp ule i64 %44, %43
  %.0108.tr = trunc nuw i64 %.0108114 to i1
  %.narrow = or i1 %45, %.0108.tr
  %narrow = select i1 %.not, i1 %.narrow, i1 false
  %46 = zext i1 %narrow to i64
  store i64 %44, ptr %42, align 8, !tbaa !6
  %47 = add nuw nsw i32 %.0109113, 1
  %48 = getelementptr inbounds nuw i8, ptr %.0107115, i64 8
  %exitcond.not = icmp eq i32 %47, %6
  br i1 %exitcond.not, label %._crit_edge, label %37, !llvm.loop !24

._crit_edge:                                      ; preds = %37, %32
  %.0108.lcssa = phi i64 [ 0, %32 ], [ %46, %37 ]
  %49 = sext i32 %6 to i64
  %50 = tail call ptr @bn_wexpand(ptr noundef %0, i64 noundef %49) #6
  %51 = icmp eq ptr %50, null
  br i1 %51, label %97, label %52

52:                                               ; preds = %._crit_edge
  %53 = getelementptr inbounds nuw i8, ptr %0, i64 8
  store i32 %6, ptr %53, align 8, !tbaa !19
  %54 = load i32, ptr %18, align 8, !tbaa !18
  %55 = getelementptr inbounds nuw i8, ptr %0, i64 16
  store i32 %54, ptr %55, align 8, !tbaa !18
  %56 = load ptr, ptr %0, align 8, !tbaa !16
  %57 = load ptr, ptr %1, align 8, !tbaa !16
  %58 = getelementptr inbounds i64, ptr %57, i64 %49
  %59 = tail call i64 @bn_sub_words(ptr noundef %56, ptr noundef nonnull %58, ptr noundef %21, i32 noundef %6) #6
  %.neg = sub i64 %.0108.lcssa, %59
  %60 = ptrtoint ptr %56 to i64
  %61 = xor i64 %.neg, -1
  %62 = and i64 %61, %60
  %63 = ptrtoint ptr %58 to i64
  %64 = and i64 %.neg, %63
  %65 = or i64 %62, %64
  %66 = inttoptr i64 %65 to ptr
  %67 = icmp sgt i32 %6, 4
  br i1 %67, label %.lr.ph118.preheader, label %.preheader

.lr.ph118.preheader:                              ; preds = %52
  %68 = add nsw i32 %6, -4
  %69 = zext nneg i32 %68 to i64
  br label %.lr.ph118

.preheader.loopexit:                              ; preds = %.lr.ph118
  %70 = trunc nuw nsw i64 %indvars.iv.next to i32
  br label %.preheader

.preheader:                                       ; preds = %.preheader.loopexit, %52
  %.1.lcssa = phi i32 [ 0, %52 ], [ %70, %.preheader.loopexit ]
  %71 = icmp slt i32 %.1.lcssa, %6
  br i1 %71, label %.lr.ph121.preheader, label %._crit_edge122

.lr.ph121.preheader:                              ; preds = %.preheader
  %72 = zext nneg i32 %.1.lcssa to i64
  %wide.trip.count = zext i32 %6 to i64
  br label %.lr.ph121

.lr.ph118:                                        ; preds = %.lr.ph118.preheader, %.lr.ph118
  %indvars.iv = phi i64 [ 0, %.lr.ph118.preheader ], [ %indvars.iv.next, %.lr.ph118 ]
  %73 = getelementptr inbounds nuw i64, ptr %66, i64 %indvars.iv
  %74 = load i64, ptr %73, align 8, !tbaa !6
  %75 = or disjoint i64 %indvars.iv, 1
  %76 = getelementptr inbounds nuw i64, ptr %66, i64 %75
  %77 = load i64, ptr %76, align 8, !tbaa !6
  %78 = or disjoint i64 %indvars.iv, 2
  %79 = getelementptr inbounds nuw i64, ptr %66, i64 %78
  %80 = load i64, ptr %79, align 8, !tbaa !6
  %81 = getelementptr inbounds nuw i64, ptr %58, i64 %indvars.iv
  store i64 0, ptr %81, align 8, !tbaa !6
  %82 = or disjoint i64 %indvars.iv, 3
  %83 = getelementptr inbounds nuw i64, ptr %66, i64 %82
  %84 = load i64, ptr %83, align 8, !tbaa !6
  %85 = getelementptr inbounds nuw i64, ptr %58, i64 %75
  store i64 0, ptr %85, align 8, !tbaa !6
  %86 = getelementptr inbounds nuw i64, ptr %56, i64 %indvars.iv
  store i64 %74, ptr %86, align 8, !tbaa !6
  %87 = getelementptr inbounds nuw i64, ptr %58, i64 %78
  store i64 0, ptr %87, align 8, !tbaa !6
  %88 = getelementptr inbounds nuw i64, ptr %56, i64 %75
  store i64 %77, ptr %88, align 8, !tbaa !6
  %89 = getelementptr inbounds nuw i64, ptr %58, i64 %82
  store i64 0, ptr %89, align 8, !tbaa !6
  %90 = getelementptr inbounds nuw i64, ptr %56, i64 %78
  store i64 %80, ptr %90, align 8, !tbaa !6
  %91 = getelementptr inbounds nuw i64, ptr %56, i64 %82
  store i64 %84, ptr %91, align 8, !tbaa !6
  %indvars.iv.next = add nuw nsw i64 %indvars.iv, 4
  %92 = icmp samesign ult i64 %indvars.iv.next, %69
  br i1 %92, label %.lr.ph118, label %.preheader.loopexit, !llvm.loop !26

.lr.ph121:                                        ; preds = %.lr.ph121.preheader, %.lr.ph121
  %indvars.iv125 = phi i64 [ %72, %.lr.ph121.preheader ], [ %indvars.iv.next126, %.lr.ph121 ]
  %93 = getelementptr inbounds nuw i64, ptr %66, i64 %indvars.iv125
  %94 = load i64, ptr %93, align 8, !tbaa !6
  %95 = getelementptr inbounds nuw i64, ptr %56, i64 %indvars.iv125
  store i64 %94, ptr %95, align 8, !tbaa !6
  %96 = getelementptr inbounds nuw i64, ptr %58, i64 %indvars.iv125
  store i64 0, ptr %96, align 8, !tbaa !6
  %indvars.iv.next126 = add nuw nsw i64 %indvars.iv125, 1
  %exitcond128.not = icmp eq i64 %indvars.iv.next126, %wide.trip.count
  br i1 %exitcond128.not, label %._crit_edge122, label %.lr.ph121, !llvm.loop !27

._crit_edge122:                                   ; preds = %.lr.ph121, %.preheader
  tail call void @bn_correct_top(ptr noundef nonnull %1) #6
  tail call void @bn_correct_top(ptr noundef nonnull %0) #6
  br label %97

97:                                               ; preds = %._crit_edge, %10, %._crit_edge122, %8
  %.0 = phi i32 [ 1, %8 ], [ 1, %._crit_edge122 ], [ 0, %10 ], [ 0, %._crit_edge ]
  ret i32 %.0
}